target datalayout = "e-m:e-p270:32:32-p271:32:32-p272:64:64-i64:64-i128:128-f80:128-n8:16:32:64-S128"
target triple = "x86_64-pc-linux-gnu"

%struct.Lf_Man_t_ = type { ptr, ptr, i32, i32, ptr, %struct.Vec_Ptr_t_, %struct.Vec_Int_t_, ptr, %struct.Vec_Ptr_t_, %struct.Lf_Mem_t_, %struct.Lf_Mem_t_, %struct.Vec_Int_t_, %struct.Vec_Int_t_, %struct.Vec_Int_t_, %struct.Vec_Flt_t_, %struct.Vec_Int_t_, %struct.Vec_Flt_t_, %struct.Vec_Int_t_, i64, [4 x double], double, i32, i32, i32, i32, i32, i32, i32, i32, [14 x i32] }
%struct.Vec_Ptr_t_ = type { i32, i32, ptr }
%struct.Lf_Mem_t_ = type { i32, i32, i32, i32, %struct.Vec_Ptr_t_, ptr }
%struct.Vec_Flt_t_ = type { i32, i32, ptr }
%struct.Vec_Int_t_ = type { i32, i32, ptr }
%struct.Lf_Bst_t_ = type { [3 x i32], [3 x float], [2 x %struct.Lf_Plc_t_] }
%struct.Lf_Plc_t_ = type { i32 }
%struct.Lf_Cut_t_ = type { i64, i32, float, i32, i32, [0 x i32] }
%struct.Jf_Par_t_ = type { i32, i32, i32, i32, i32, i32, i32, i32, i32, i32, i32, i32, i32, i32, i32, i32, i32, i32, i32, i32, i32, i32, i32, i32, i32, i32, i32, i32, i32, i32, i32, i32, i32, i32, i32, i32, i32, i32, i32, i32, i64, i64, i64, i64, i64, i64, i64, i64, i32, float, float, float, float, ptr, ptr }

; Function Attrs: inlinehint nounwind uwtable
define internal float @Vec_FltEntry(ptr noundef %0, i32 noundef %1) #1 {
  %3 = alloca ptr, align 8
  %4 = alloca i32, align 4
  store ptr %0, ptr %3, align 8, !tbaa !62
  store i32 %1, ptr %4, align 4, !tbaa !26
  %5 = load ptr, ptr %3, align 8, !tbaa !62
  %6 = getelementptr inbounds nuw %struct.Vec_Flt_t_, ptr %5, i32 0, i32 2
  %7 = load ptr, ptr %6, align 8, !tbaa !133
  %8 = load i32, ptr %4, align 4, !tbaa !26
  %9 = sext i32 %8 to i64
  %10 = getelementptr inbounds float, ptr %7, i64 %9
  %11 = load float, ptr %10, align 4, !tbaa !67
  ret float %11
}

; Function Attrs: inlinehint nounwind uwtable
define internal void @Vec_IntWriteEntry(ptr noundef %0, i32 noundef %1, i32 noundef %2) #1 {
  %4 = alloca ptr, align 8
  %5 = alloca i32, align 4
  %6 = alloca i32, align 4
  store ptr %0, ptr %4, align 8, !tbaa !56
  store i32 %1, ptr %5, align 4, !tbaa !26
  store i32 %2, ptr %6, align 4, !tbaa !26
  %7 = load i32, ptr %6, align 4, !tbaa !26
  %8 = load ptr, ptr %4, align 8, !tbaa !56
  %9 = getelementptr inbounds nuw %struct.Vec_Int_t_, ptr %8, i32 0, i32 2
  %10 = load ptr, ptr %9, align 8, !tbaa !61
  %11 = load i32, ptr %5, align 4, !tbaa !26
  %12 = sext i32 %11 to i64
  %13 = getelementptr inbounds i32, ptr %10, i64 %12
  store i32 %7, ptr %13, align 4, !tbaa !26
  ret void
}

; Function Attrs: inlinehint nounwind uwtable
define internal float @Lf_ObjSwitches(ptr noundef %0, i32 noundef %1) #1 {
  %3 = alloca ptr, align 8
  %4 = alloca i32, align 4
  store ptr %0, ptr %3, align 8, !tbaa !3
  store i32 %1, ptr %4, align 4, !tbaa !26
  %5 = load ptr, ptr %3, align 8, !tbaa !3
  %6 = getelementptr inbounds nuw %struct.Lf_Man_t_, ptr %5, i32 0, i32 16
  %7 = load i32, ptr %4, align 4, !tbaa !26
  %8 = call float @Vec_FltEntry(ptr noundef %6, i32 noundef %7)
  ret float %8
}

; Function Attrs: inlinehint nounwind uwtable
define internal void @Vec_IntDowndateEntry(ptr noundef %0, i32 noundef %1, i32 noundef %2) #1 {
  %4 = alloca ptr, align 8
  %5 = alloca i32, align 4
  %6 = alloca i32, align 4
  store ptr %0, ptr %4, align 8, !tbaa !56
  store i32 %1, ptr %5, align 4, !tbaa !26
  store i32 %2, ptr %6, align 4, !tbaa !26
  %7 = load ptr, ptr %4, align 8, !tbaa !56
  %8 = load i32, ptr %5, align 4, !tbaa !26
  %9 = call i32 @Vec_IntEntry(ptr noundef %7, i32 noundef %8)
  %10 = load i32, ptr %6, align 4, !tbaa !26
  %11 = icmp sgt i32 %9, %10
  br i1 %11, label %12, label %16

12:                                               ; preds = %3
  %13 = load ptr, ptr %4, align 8, !tbaa !56
  %14 = load i32, ptr %5, align 4, !tbaa !26
  %15 = load i32, ptr %6, align 4, !tbaa !26
  call void @Vec_IntWriteEntry(ptr noundef %13, i32 noundef %14, i32 noundef %15)
  br label %16

16:                                               ; preds = %12, %3
  ret void
}

; Function Attrs: inlinehint nounwind uwtable
define internal i32 @Vec_IntEntry(ptr noundef %0, i32 noundef %1) #1 {
  %3 = alloca ptr, align 8
  %4 = alloca i32, align 4
  store ptr %0, ptr %3, align 8, !tbaa !56
  store i32 %1, ptr %4, align 4, !tbaa !26
  %5 = load ptr, ptr %3, align 8, !tbaa !56
  %6 = getelementptr inbounds nuw %struct.Vec_Int_t_, ptr %5, i32 0, i32 2
  %7 = load ptr, ptr %6, align 8, !tbaa !61
  %8 = load i32, ptr %4, align 4, !tbaa !26
  %9 = sext i32 %8 to i64
  %10 = getelementptr inbounds i32, ptr %7, i64 %9
  %11 = load i32, ptr %10, align 4, !tbaa !26
  ret i32 %11
}

; Function Attrs: inlinehint nounwind uwtable
define internal i32 @Lf_ObjOff(ptr noundef %0, i32 noundef %1) #1 {
  %3 = alloca ptr, align 8
  %4 = alloca i32, align 4
  store ptr %0, ptr %3, align 8, !tbaa !3
  store i32 %1, ptr %4, align 4, !tbaa !26
  %5 = load ptr, ptr %3, align 8, !tbaa !3
  %6 = getelementptr inbounds nuw %struct.Lf_Man_t_, ptr %5, i32 0, i32 11
  %7 = load i32, ptr %4, align 4, !tbaa !26
  %8 = call i32 @Vec_IntEntry(ptr noundef %6, i32 noundef %7)
  ret i32 %8
}

; Function Attrs: inlinehint nounwind uwtable
define internal float @Lf_CutSwitches(ptr noundef %0, ptr noundef %1) #1 {
  %3 = alloca ptr, align 8
  %4 = alloca ptr, align 8
  %5 = alloca float, align 4
  %6 = alloca i32, align 4
  store ptr %0, ptr %3, align 8, !tbaa !3
  store ptr %1, ptr %4, align 8, !tbaa !65
  call void @llvm.lifetime.start.p0(i64 4, ptr %5) #14
  store float 0.000000e+00, ptr %5, align 4, !tbaa !67
  call void @llvm.lifetime.start.p0(i64 4, ptr %6) #14
  store i32 0, ptr %6, align 4, !tbaa !26
  br label %7

7:                                                ; preds = %25, %2
  %8 = load i32, ptr %6, align 4, !tbaa !26
  %9 = load ptr, ptr %4, align 8, !tbaa !65
  %10 = getelementptr inbounds nuw %struct.Lf_Cut_t_, ptr %9, i32 0, i32 4
  %11 = load i32, ptr %10, align 4
  %12 = lshr i32 %11, 24
  %13 = icmp slt i32 %8, %12
  br i1 %13, label %14, label %28

14:                                               ; preds = %7
  %15 = load ptr, ptr %3, align 8, !tbaa !3
  %16 = load ptr, ptr %4, align 8, !tbaa !65
  %17 = getelementptr inbounds nuw %struct.Lf_Cut_t_, ptr %16, i32 0, i32 5
  %18 = load i32, ptr %6, align 4, !tbaa !26
  %19 = sext i32 %18 to i64
  %20 = getelementptr inbounds [0 x i32], ptr %17, i64 0, i64 %19
  %21 = load i32, ptr %20, align 4, !tbaa !26
  %22 = call float @Lf_ObjSwitches(ptr noundef %15, i32 noundef %21)
  %23 = load float, ptr %5, align 4, !tbaa !67
  %24 = fadd float %23, %22
  store float %24, ptr %5, align 4, !tbaa !67
  br label %25

25:                                               ; preds = %14
  %26 = load i32, ptr %6, align 4, !tbaa !26
  %27 = add nsw i32 %26, 1
  store i32 %27, ptr %6, align 4, !tbaa !26
  br label %7, !llvm.loop !144

28:                                               ; preds = %7
  %29 = load float, ptr %5, align 4, !tbaa !67
  call void @llvm.lifetime.end.p0(i64 4, ptr %6) #14
  call void @llvm.lifetime.end.p0(i64 4, ptr %5) #14
  ret float %29
}

; Function Attrs: inlinehint nounwind uwtable
define internal i32 @Vec_FltSize(ptr noundef %0) #1 {
  %2 = alloca ptr, align 8
  store ptr %0, ptr %2, align 8, !tbaa !62
  %3 = load ptr, ptr %2, align 8, !tbaa !62
  %4 = getelementptr inbounds nuw %struct.Vec_Flt_t_, ptr %3, i32 0, i32 1
  %5 = load i32, ptr %4, align 4, !tbaa !135
  ret i32 %5
}

; Function Attrs: inlinehint nounwind uwtable
define internal void @Lf_ObjSetRequired(ptr noundef %0, i32 noundef %1, i32 noundef %2) #1 {
  %4 = alloca ptr, align 8
  %5 = alloca i32, align 4
  %6 = alloca i32, align 4
  store ptr %0, ptr %4, align 8, !tbaa !3
  store i32 %1, ptr %5, align 4, !tbaa !26
  store i32 %2, ptr %6, align 4, !tbaa !26
  %7 = load ptr, ptr %4, align 8, !tbaa !3
  %8 = getelementptr inbounds nuw %struct.Lf_Man_t_, ptr %7, i32 0, i32 12
  %9 = load i32, ptr %5, align 4, !tbaa !26
  %10 = load i32, ptr %6, align 4, !tbaa !26
  call void @Vec_IntDowndateEntry(ptr noundef %8, i32 noundef %9, i32 noundef %10)
  ret void
}

; Function Attrs: inlinehint nounwind uwtable
define internal i32 @Lf_ObjRequired(ptr noundef %0, i32 noundef %1) #1 {
  %3 = alloca ptr, align 8
  %4 = alloca i32, align 4
  store ptr %0, ptr %3, align 8, !tbaa !3
  store i32 %1, ptr %4, align 4, !tbaa !26
  %5 = load ptr, ptr %3, align 8, !tbaa !3
  %6 = getelementptr inbounds nuw %struct.Lf_Man_t_, ptr %5, i32 0, i32 12
  %7 = load i32, ptr %4, align 4, !tbaa !26
  %8 = call i32 @Vec_IntEntry(ptr noundef %6, i32 noundef %7)
  ret i32 %8
}

; Function Attrs: inlinehint nounwind uwtable
define internal ptr @Lf_ObjReadBest(ptr noundef %0, i32 noundef %1) #1 {
  %3 = alloca ptr, align 8
  %4 = alloca i32, align 4
  store ptr %0, ptr %3, align 8, !tbaa !3
  store i32 %1, ptr %4, align 4, !tbaa !26
  %5 = load ptr, ptr %3, align 8, !tbaa !3
  %6 = getelementptr inbounds nuw %struct.Lf_Man_t_, ptr %5, i32 0, i32 4
  %7 = load ptr, ptr %6, align 8, !tbaa !27
  %8 = load ptr, ptr %3, align 8, !tbaa !3
  %9 = load i32, ptr %4, align 4, !tbaa !26
  %10 = call i32 @Lf_ObjOff(ptr noundef %8, i32 noundef %9)
  %11 = sext i32 %10 to i64
  %12 = getelementptr inbounds %struct.Lf_Bst_t_, ptr %7, i64 %11
  ret ptr %12
}

; Function Attrs: nounwind uwtable
define void @Lf_ManCountMapRefsOne(ptr noundef %0, i32 noundef %1) #0 {
  %3 = alloca ptr, align 8
  %4 = alloca i32, align 4
  %5 = alloca ptr, align 8
  %6 = alloca ptr, align 8
  %7 = alloca i32, align 4
  %8 = alloca i32, align 4
  store ptr %0, ptr %3, align 8, !tbaa !3
  store i32 %1, ptr %4, align 4, !tbaa !26
  call void @llvm.lifetime.start.p0(i64 8, ptr %5) #14
  %9 = load ptr, ptr %3, align 8, !tbaa !3
  %10 = load i32, ptr %4, align 4, !tbaa !26
  %11 = call ptr @Lf_ObjReadBest(ptr noundef %9, i32 noundef %10)
  store ptr %11, ptr %5, align 8, !tbaa !44
  call void @llvm.lifetime.start.p0(i64 8, ptr %6) #14
  %12 = load ptr, ptr %3, align 8, !tbaa !3
  %13 = load i32, ptr %4, align 4, !tbaa !26
  %14 = call ptr @Lf_ObjCutBest(ptr noundef %12, i32 noundef %13)
  store ptr %14, ptr %6, align 8, !tbaa !65
  call void @llvm.lifetime.start.p0(i64 4, ptr %7) #14
  call void @llvm.lifetime.start.p0(i64 4, ptr %8) #14
  %15 = load ptr, ptr %3, align 8, !tbaa !3
  %16 = load i32, ptr %4, align 4, !tbaa !26
  %17 = call i32 @Lf_ObjRequired(ptr noundef %15, i32 noundef %16)
  store i32 %17, ptr %8, align 4, !tbaa !26
  store i32 0, ptr %7, align 4, !tbaa !26
  br label %18

18:                                               ; preds = %35, %2
  %19 = load i32, ptr %7, align 4, !tbaa !26
  %20 = load ptr, ptr %6, align 8, !tbaa !65
  %21 = getelementptr inbounds nuw %struct.Lf_Cut_t_, ptr %20, i32 0, i32 4
  %22 = load i32, ptr %21, align 4
  %23 = lshr i32 %22, 24
  %24 = icmp slt i32 %19, %23
  br i1 %24, label %25, label %38

25:                                               ; preds = %18
  %26 = load ptr, ptr %3, align 8, !tbaa !3
  %27 = load ptr, ptr %6, align 8, !tbaa !65
  %28 = getelementptr inbounds nuw %struct.Lf_Cut_t_, ptr %27, i32 0, i32 5
  %29 = load i32, ptr %7, align 4, !tbaa !26
  %30 = sext i32 %29 to i64
  %31 = getelementptr inbounds [0 x i32], ptr %28, i64 0, i64 %30
  %32 = load i32, ptr %31, align 4, !tbaa !26
  %33 = load i32, ptr %8, align 4, !tbaa !26
  %34 = sub nsw i32 %33, 1
  call void @Lf_ObjSetRequired(ptr noundef %26, i32 noundef %32, i32 noundef %34)
  br label %35

35:                                               ; preds = %25
  %36 = load i32, ptr %7, align 4, !tbaa !26
  %37 = add nsw i32 %36, 1
  store i32 %37, ptr %7, align 4, !tbaa !26
  br label %18, !llvm.loop !161

38:                                               ; preds = %18
  %39 = load ptr, ptr %3, align 8, !tbaa !3
  %40 = getelementptr inbounds nuw %struct.Lf_Man_t_, ptr %39, i32 0, i32 16
  %41 = call i32 @Vec_FltSize(ptr noundef %40)
  %42 = icmp ne i32 %41, 0
  br i1 %42, label %43, label %52

43:                                               ; preds = %38
  %44 = load ptr, ptr %3, align 8, !tbaa !3
  %45 = load ptr, ptr %6, align 8, !tbaa !65
  %46 = call float @Lf_CutSwitches(ptr noundef %44, ptr noundef %45)
  %47 = fpext float %46 to double
  %48 = load ptr, ptr %3, align 8, !tbaa !3
  %49 = getelementptr inbounds nuw %struct.Lf_Man_t_, ptr %48, i32 0, i32 20
  %50 = load double, ptr %49, align 8, !tbaa !142
  %51 = fadd double %50, %47
  store double %51, ptr %49, align 8, !tbaa !142
  br label %52

52:                                               ; preds = %43, %38
  %53 = load ptr, ptr %6, align 8, !tbaa !65
  %54 = getelementptr inbounds nuw %struct.Lf_Cut_t_, ptr %53, i32 0, i32 4
  %55 = load i32, ptr %54, align 4
  %56 = lshr i32 %55, 24
  %57 = zext i32 %56 to i64
  %58 = load ptr, ptr %3, align 8, !tbaa !3
  %59 = getelementptr inbounds nuw %struct.Lf_Man_t_, ptr %58, i32 0, i32 1
  %60 = load ptr, ptr %59, align 8, !tbaa !69
  %61 = getelementptr inbounds nuw %struct.Jf_Par_t_, ptr %60, i32 0, i32 42
  %62 = load i64, ptr %61, align 8, !tbaa !141
  %63 = add i64 %62, %57
  store i64 %63, ptr %61, align 8, !tbaa !141
  %64 = load ptr, ptr %3, align 8, !tbaa !3
  %65 = getelementptr inbounds nuw %struct.Lf_Man_t_, ptr %64, i32 0, i32 1
  %66 = load ptr, ptr %65, align 8, !tbaa !69
  %67 = getelementptr inbounds nuw %struct.Jf_Par_t_, ptr %66, i32 0, i32 41
  %68 = load i64, ptr %67, align 8, !tbaa !143
  %69 = add i64 %68, 1
  store i64 %69, ptr %67, align 8, !tbaa !143
  call void @llvm.lifetime.end.p0(i64 4, ptr %8) #14
  call void @llvm.lifetime.end.p0(i64 4, ptr %7) #14
  call void @llvm.lifetime.end.p0(i64 8, ptr %6) #14
  call void @llvm.lifetime.end.p0(i64 8, ptr %5) #14
  ret void
}