; Function Attrs: nofree norecurse nosync nounwind memory(readwrite, inaccessiblemem: none) uwtable
define void @Lf_ManCountMapRefsOne(ptr noundef captures(none) %0, i32 noundef %1) local_unnamed_addr #16 {
  %3 = sext i32 %1 to i64
  %4 = tail call fastcc ptr @Lf_ObjCutBest(ptr noundef %0, i32 noundef %1)
  %5 = getelementptr i8, ptr %0, i64 192
  %.val20 = load ptr, ptr %5, align 8, !tbaa !39
  %6 = getelementptr inbounds i32, ptr %.val20, i64 %3
  %7 = load i32, ptr %6, align 4, !tbaa !40
  %8 = getelementptr inbounds nuw i8, ptr %4, i64 20
  %9 = load i32, ptr %8, align 4
  %10 = lshr i32 %9, 24
  %.not29 = icmp ult i32 %9, 16777216
  br i1 %.not29, label %._crit_edge, label %.lr.ph

.lr.ph:                                           ; preds = %2
  %11 = getelementptr inbounds nuw i8, ptr %4, i64 24
  %12 = add nsw i32 %7, -1
  br label %13

13:                                               ; preds = %.lr.ph, %Lf_ObjSetRequired.exit
  %14 = phi i32 [ %9, %.lr.ph ], [ %21, %Lf_ObjSetRequired.exit ]
  %indvars.iv = phi i64 [ 0, %.lr.ph ], [ %indvars.iv.next, %Lf_ObjSetRequired.exit ]
  %15 = getelementptr inbounds nuw [0 x i32], ptr %11, i64 0, i64 %indvars.iv
  %16 = load i32, ptr %15, align 4, !tbaa !40
  %17 = sext i32 %16 to i64
  %18 = getelementptr inbounds i32, ptr %.val20, i64 %17
  %19 = load i32, ptr %18, align 4, !tbaa !40
  %.not23 = icmp slt i32 %19, %7
  br i1 %.not23, label %Lf_ObjSetRequired.exit, label %20

20:                                               ; preds = %13
  store i32 %12, ptr %18, align 4, !tbaa !40
  %.pre = load i32, ptr %8, align 4
  br label %Lf_ObjSetRequired.exit

Lf_ObjSetRequired.exit:                           ; preds = %13, %20
  %21 = phi i32 [ %14, %13 ], [ %.pre, %20 ]
  %indvars.iv.next = add nuw nsw i64 %indvars.iv, 1
  %22 = lshr i32 %21, 24
  %23 = zext nneg i32 %22 to i64
  %24 = icmp samesign ult i64 %indvars.iv.next, %23
  br i1 %24, label %13, label %._crit_edge, !llvm.loop !190

._crit_edge:                                      ; preds = %Lf_ObjSetRequired.exit, %2
  %.lcssa25 = phi i32 [ %9, %2 ], [ %21, %Lf_ObjSetRequired.exit ]
  %.lcssa24 = phi i32 [ %10, %2 ], [ %22, %Lf_ObjSetRequired.exit ]
  %25 = getelementptr i8, ptr %0, i64 252
  %.val21 = load i32, ptr %25, align 4, !tbaa !162
  %.not = icmp eq i32 %.val21, 0
  br i1 %.not, label %40, label %26

26:                                               ; preds = %._crit_edge
  %.not.i = icmp ult i32 %.lcssa25, 16777216
  br i1 %.not.i, label %Lf_CutSwitches.exit, label %.lr.ph.i

.lr.ph.i:                                         ; preds = %26
  %27 = getelementptr inbounds nuw i8, ptr %4, i64 24
  %28 = getelementptr i8, ptr %0, i64 256
  %.val.i = load ptr, ptr %28, align 8, !tbaa !58
  %wide.trip.count.i = zext nneg i32 %.lcssa24 to i64
  br label %29

29:                                               ; preds = %29, %.lr.ph.i
  %indvars.iv.i = phi i64 [ 0, %.lr.ph.i ], [ %indvars.iv.next.i, %29 ]
  %.078.i = phi float [ 0.000000e+00, %.lr.ph.i ], [ %35, %29 ]
  %30 = getelementptr inbounds nuw [0 x i32], ptr %27, i64 0, i64 %indvars.iv.i
  %31 = load i32, ptr %30, align 4, !tbaa !40
  %32 = sext i32 %31 to i64
  %33 = getelementptr inbounds float, ptr %.val.i, i64 %32
  %34 = load float, ptr %33, align 4, !tbaa !59
  %35 = fadd float %.078.i, %34
  %indvars.iv.next.i = add nuw nsw i64 %indvars.iv.i, 1
  %exitcond.not.i = icmp eq i64 %indvars.iv.next.i, %wide.trip.count.i
  br i1 %exitcond.not.i, label %Lf_CutSwitches.exit.loopexit, label %29, !llvm.loop !60

Lf_CutSwitches.exit.loopexit:                     ; preds = %29
  %36 = fpext float %35 to double
  br label %Lf_CutSwitches.exit

Lf_CutSwitches.exit:                              ; preds = %Lf_CutSwitches.exit.loopexit, %26
  %.07.lcssa.i = phi double [ 0.000000e+00, %26 ], [ %36, %Lf_CutSwitches.exit.loopexit ]
  %37 = getelementptr inbounds nuw i8, ptr %0, i64 320
  %38 = load double, ptr %37, align 8, !tbaa !169
  %39 = fadd double %38, %.07.lcssa.i
  store double %39, ptr %37, align 8, !tbaa !169
  %.pre33 = load i32, ptr %8, align 4
  br label %40

40:                                               ; preds = %Lf_CutSwitches.exit, %._crit_edge
  %41 = phi i32 [ %.pre33, %Lf_CutSwitches.exit ], [ %.lcssa25, %._crit_edge ]
  %42 = lshr i32 %41, 24
  %43 = zext nneg i32 %42 to i64
  %44 = getelementptr inbounds nuw i8, ptr %0, i64 8
  %45 = load ptr, ptr %44, align 8, !tbaa !55
  %46 = getelementptr inbounds nuw i8, ptr %45, i64 176
  %47 = load i64, ptr %46, align 8, !tbaa !191
  %48 = add i64 %47, %43
  store i64 %48, ptr %46, align 8, !tbaa !191
  %49 = getelementptr inbounds nuw i8, ptr %45, i64 168
  %50 = load i64, ptr %49, align 8, !tbaa !184
  %51 = add i64 %50, 1
  store i64 %51, ptr %49, align 8, !tbaa !184
  ret void
}